
Memory Configuration

Name             Origin             Length             Attributes
ROM              0x0000000000000000 0x0000000000010000 xrw
RAM              0x0000000080000000 0x0000000000010000 xrw
*default*        0x0000000000000000 0xffffffffffffffff

Linker script and memory map

                0x0000000000002000                __heap_size = 0x2000
                0x0000000000008000                __stack_size = 0x8000

.text           0x0000000000000000      0x920
 *(.boot)
 .boot          0x0000000000000000       0x94 ./crt.s.o
                0x0000000000000000                _boot
 *(.text)
 .text          0x0000000000000094       0xec ./io.o
                0x0000000000000094                pinMode
                0x00000000000000c4                setDirection
                0x00000000000000d0                readDirection
                0x00000000000000dc                digitalRead
                0x00000000000000f4                setGPIO
                0x0000000000000100                readGPIO
                0x000000000000010c                digitalWrite
                0x000000000000013c                setTimer
                0x0000000000000148                getTimer
                0x0000000000000154                resetTimer
                0x0000000000000160                sleep
 .text          0x0000000000000180      0x688 ./stdio.o
                0x0000000000000180                gets
                0x0000000000000258                putstr
                0x0000000000000298                puts
                0x00000000000002b4                putdx
                0x00000000000003ac                putx
                0x00000000000003b4                putd
                0x00000000000003bc                printf
                0x00000000000004b8                strncmp
                0x00000000000004ec                strcmp
                0x00000000000004f4                strlen
                0x0000000000000514                memcpy
                0x0000000000000538                memset
                0x0000000000000554                strtok
                0x00000000000005f4                atoi
                0x0000000000000648                xtoi
                0x0000000000000688                __umulsi3
                0x00000000000006bc                __mulsi3
                0x000000000000070c                __udiv_umod_si3
                0x0000000000000764                __udivsi3
                0x000000000000076c                __umodsi3
                0x0000000000000774                __div_mod_si3
                0x00000000000007f8                __divsi3
                0x0000000000000800                __modsi3
 .text          0x0000000000000808        0x0 ./main.o
 .text          0x0000000000000808      0x118 ./uart.o
                0x0000000000000808                uart_reg_read
                0x0000000000000818                uart_reg_write
                0x0000000000000828                uart_rx_empty
                0x0000000000000838                uart_tx_full
                0x000000000000084c                uart_read
                0x000000000000085c                uart_write
                0x0000000000000868                uart_divisor
                0x0000000000000888                uart_init
                0x00000000000008b8                getchar
                0x00000000000008d4                putchar
 .text          0x0000000000000920        0x0 ./crt.s.o

.text.startup   0x0000000000000920       0x98
 .text.startup  0x0000000000000920       0x98 ./main.o
                0x0000000000000920                main

.data           0x0000000080000000      0xc78
 *(.rodata*)
 .rodata.str1.4
                0x0000000080000000       0x19 ./stdio.o
 *fill*         0x0000000080000019        0x3 
 .rodata        0x000000008000001c       0x40 ./stdio.o
 .rodata.str1.4
                0x000000008000005c      0xc0b ./main.o
 *(.*data*)
 .data          0x0000000080000c67        0x0 ./io.o
 .data          0x0000000080000c67        0x0 ./stdio.o
 .data          0x0000000080000c67        0x0 ./main.o
 *fill*         0x0000000080000c67        0x1 
 .sdata         0x0000000080000c68        0xc ./main.o
                0x0000000080000c68                heapcheck
                0x0000000080000c6c                logocv
                0x0000000080000c70                logorv
 .data          0x0000000080000c74        0x0 ./uart.o
 .data          0x0000000080000c74        0x0 ./crt.s.o
 *(.sbss)
 .sbss          0x0000000080000c74        0x4 ./stdio.o
 *(.bss)
 .bss           0x0000000080000c78        0x0 ./io.o
 .bss           0x0000000080000c78        0x0 ./stdio.o
 .bss           0x0000000080000c78        0x0 ./main.o
 .bss           0x0000000080000c78        0x0 ./uart.o
 .bss           0x0000000080000c78        0x0 ./crt.s.o
 *(.rela*)
 *(COMMON)
                0x0000000080000c78                _heap = .
                0x0000000080010000                PROVIDE (_sstack = (ORIGIN (RAM) + LENGTH (RAM)))
LOAD ./io.o
LOAD ./stdio.o
LOAD ./main.o
LOAD ./uart.o
LOAD ./crt.s.o
OUTPUT(main.elf elf32-littleriscv)

.comment        0x0000000000000000       0x12
 .comment       0x0000000000000000       0x12 ./io.o
                                         0x13 (size before relaxing)
 .comment       0x0000000000000012       0x13 ./stdio.o
 .comment       0x0000000000000012       0x13 ./main.o
 .comment       0x0000000000000012       0x13 ./uart.o

.riscv.attributes
                0x0000000000000000       0x1c
 .riscv.attributes
                0x0000000000000000       0x1c ./io.o
 .riscv.attributes
                0x000000000000001c       0x1c ./stdio.o
 .riscv.attributes
                0x0000000000000038       0x1c ./main.o
 .riscv.attributes
                0x0000000000000054       0x1c ./uart.o
 .riscv.attributes
                0x0000000000000070       0x1a ./crt.s.o
