
main.elf:     file format elf32-littleriscv

SYMBOL TABLE:
00000000 l    d  .text	00000000 .text
000009f4 l    d  .text.startup	00000000 .text.startup
80000000 l    d  .data	00000000 .data
00000000 l    d  .comment	00000000 .comment
00000000 l    d  .riscv.attributes	00000000 .riscv.attributes
00000000 l    df *ABS*	00000000 ./crt.s.o
00000090 l       .text	00000000 _halt
00000000 l    df *ABS*	00000000 io.c
00000000 l    df *ABS*	00000000 stdio.c
80000cf4 l     O .data	00000004 nxt.0
00000000 l    df *ABS*	00000000 main.c
00000000 l    df *ABS*	00000000 uart.c
000009a8 g     F .text	0000004c putchar
000008dc g     F .text	00000010 uart_reg_read
000003c0 g     F .text	000000fc printf
80000cf0 g     O .data	00000004 logorv
0000016c g     F .text	0000000c readGPIO
0000025c g     F .text	00000040 putstr
0000093c g     F .text	00000020 uart_divisor
00008000 g       *ABS*	00000000 __stack_size
00000184 g     F .text	000000d8 gets
000000c4 g     F .text	0000001c digitalRead
00000930 g     F .text	0000000c uart_write
00000000 g       .text	00000000 _boot
00000154 g     F .text	0000000c readDirection
00000518 g     F .text	00000024 memcpy
0000090c g     F .text	00000014 uart_tx_full
0000029c g     F .text	0000001c puts
00000768 g     F .text	00000008 __udivsi3
00000128 g     F .text	00000020 sleep
80000cec g     O .data	00000004 logocv
000000e0 g     F .text	00000030 digitalWrite
00000094 g     F .text	00000030 pinMode
00000110 g     F .text	0000000c getTimer
80000ce8 g     O .data	00000004 heapcheck
0000064c g     F .text	00000040 xtoi
0000068c g     F .text	00000034 __umulsi3
00002000 g       *ABS*	00000000 __heap_size
00000770 g     F .text	00000008 __umodsi3
000003b0 g     F .text	00000008 putx
0000095c g     F .text	00000030 uart_init
000004bc g     F .text	00000034 strncmp
000008fc g     F .text	00000010 uart_rx_empty
000006c0 g     F .text	00000050 __mulsi3
000008ec g     F .text	00000010 uart_reg_write
00000558 g     F .text	000000a0 strtok
000002b8 g     F .text	000000f8 putdx
0000053c g     F .text	0000001c memset
000009f4 g     F .text.startup	0000009c main
0000098c g     F .text	0000001c getchar
000007fc g     F .text	00000008 __divsi3
000004f0 g     F .text	00000008 strcmp
80010000 g       .data	00000000 _sstack
00000160 g     F .text	0000000c setGPIO
00000148 g     F .text	0000000c setDirection
0000080c g     F .text	000000d0 header
0000011c g     F .text	0000000c resetTimer
000003b8 g     F .text	00000008 putd
00000920 g     F .text	00000010 uart_read
80000cf8 g       .data	00000000 _heap
00000178 g     F .text	0000000c setTimer
00000710 g     F .text	00000058 __udiv_umod_si3
00000804 g     F .text	00000008 __modsi3
000005f8 g     F .text	00000054 atoi
00000778 g     F .text	00000084 __div_mod_si3
000004f8 g     F .text	00000020 strlen



Disassembly of section .text:

00000000 <_boot>:
   0:	00000033          	add	zero,zero,zero
   4:	000000b3          	add	ra,zero,zero
   8:	00000133          	add	sp,zero,zero
   c:	000001b3          	add	gp,zero,zero
  10:	00000233          	add	tp,zero,zero
  14:	000002b3          	add	t0,zero,zero
  18:	00000333          	add	t1,zero,zero
  1c:	000003b3          	add	t2,zero,zero
  20:	00000433          	add	s0,zero,zero
  24:	000004b3          	add	s1,zero,zero
  28:	00000533          	add	a0,zero,zero
  2c:	000005b3          	add	a1,zero,zero
  30:	00000633          	add	a2,zero,zero
  34:	000006b3          	add	a3,zero,zero
  38:	00000733          	add	a4,zero,zero
  3c:	000007b3          	add	a5,zero,zero
  40:	00000833          	add	a6,zero,zero
  44:	000008b3          	add	a7,zero,zero
  48:	00000933          	add	s2,zero,zero
  4c:	000009b3          	add	s3,zero,zero
  50:	00000a33          	add	s4,zero,zero
  54:	00000ab3          	add	s5,zero,zero
  58:	00000b33          	add	s6,zero,zero
  5c:	00000bb3          	add	s7,zero,zero
  60:	00000c33          	add	s8,zero,zero
  64:	00000cb3          	add	s9,zero,zero
  68:	00000d33          	add	s10,zero,zero
  6c:	00000db3          	add	s11,zero,zero
  70:	00000e33          	add	t3,zero,zero
  74:	00000eb3          	add	t4,zero,zero
  78:	00000f33          	add	t5,zero,zero
  7c:	00000fb3          	add	t6,zero,zero
  80:	80010137          	lui	sp,0x80010
  84:	00010113          	mv	sp,sp
  88:	16d000ef          	jal	ra,9f4 <main>
  8c:	0040006f          	j	90 <_halt>

00000090 <_halt>:
  90:	0000006f          	j	90 <_halt>

00000094 <pinMode>:
  94:	300017b7          	lui	a5,0x30001
  98:	0007a703          	lw	a4,0(a5) # 30001000 <__stack_size+0x2fff9000>
  9c:	00100793          	li	a5,1
  a0:	00a79533          	sll	a0,a5,a0
  a4:	00058a63          	beqz	a1,b8 <pinMode+0x24>
  a8:	00e56533          	or	a0,a0,a4
  ac:	300017b7          	lui	a5,0x30001
  b0:	00a7a023          	sw	a0,0(a5) # 30001000 <__stack_size+0x2fff9000>
  b4:	00008067          	ret
  b8:	fff54513          	not	a0,a0
  bc:	00e57533          	and	a0,a0,a4
  c0:	fedff06f          	j	ac <pinMode+0x18>

000000c4 <digitalRead>:
  c4:	300017b7          	lui	a5,0x30001
  c8:	0047a703          	lw	a4,4(a5) # 30001004 <__stack_size+0x2fff9004>
  cc:	00100793          	li	a5,1
  d0:	00a79533          	sll	a0,a5,a0
  d4:	00e57533          	and	a0,a0,a4
  d8:	00a03533          	snez	a0,a0
  dc:	00008067          	ret

000000e0 <digitalWrite>:
  e0:	300017b7          	lui	a5,0x30001
  e4:	0047a703          	lw	a4,4(a5) # 30001004 <__stack_size+0x2fff9004>
  e8:	00100793          	li	a5,1
  ec:	00a79533          	sll	a0,a5,a0
  f0:	00058a63          	beqz	a1,104 <digitalWrite+0x24>
  f4:	00e56533          	or	a0,a0,a4
  f8:	300017b7          	lui	a5,0x30001
  fc:	00a7a223          	sw	a0,4(a5) # 30001004 <__stack_size+0x2fff9004>
 100:	00008067          	ret
 104:	fff54513          	not	a0,a0
 108:	00e57533          	and	a0,a0,a4
 10c:	fedff06f          	j	f8 <digitalWrite+0x18>

00000110 <getTimer>:
 110:	300037b7          	lui	a5,0x30003
 114:	0007a503          	lw	a0,0(a5) # 30003000 <__stack_size+0x2fffb000>
 118:	00008067          	ret

0000011c <resetTimer>:
 11c:	300037b7          	lui	a5,0x30003
 120:	0007a023          	sw	zero,0(a5) # 30003000 <__stack_size+0x2fffb000>
 124:	00008067          	ret

00000128 <sleep>:
 128:	300037b7          	lui	a5,0x30003
 12c:	0007a023          	sw	zero,0(a5) # 30003000 <__stack_size+0x2fffb000>
 130:	0007a703          	lw	a4,0(a5)
 134:	00e50533          	add	a0,a0,a4
 138:	0007a703          	lw	a4,0(a5)
 13c:	fee57ee3          	bgeu	a0,a4,138 <sleep+0x10>
 140:	0007a023          	sw	zero,0(a5)
 144:	00008067          	ret

00000148 <setDirection>:
 148:	300017b7          	lui	a5,0x30001
 14c:	00a7a023          	sw	a0,0(a5) # 30001000 <__stack_size+0x2fff9000>
 150:	00008067          	ret

00000154 <readDirection>:
 154:	300017b7          	lui	a5,0x30001
 158:	0007a503          	lw	a0,0(a5) # 30001000 <__stack_size+0x2fff9000>
 15c:	00008067          	ret

00000160 <setGPIO>:
 160:	300017b7          	lui	a5,0x30001
 164:	00a7a223          	sw	a0,4(a5) # 30001004 <__stack_size+0x2fff9004>
 168:	00008067          	ret

0000016c <readGPIO>:
 16c:	300017b7          	lui	a5,0x30001
 170:	0047a503          	lw	a0,4(a5) # 30001004 <__stack_size+0x2fff9004>
 174:	00008067          	ret

00000178 <setTimer>:
 178:	300037b7          	lui	a5,0x30003
 17c:	00a7a023          	sw	a0,0(a5) # 30003000 <__stack_size+0x2fffb000>
 180:	00008067          	ret

00000184 <gets>:
 184:	fd010113          	addi	sp,sp,-48 # 8000ffd0 <_sstack+0xffffffd0>
 188:	02812423          	sw	s0,40(sp)
 18c:	02912223          	sw	s1,36(sp)
 190:	01312e23          	sw	s3,28(sp)
 194:	01612823          	sw	s6,16(sp)
 198:	01712623          	sw	s7,12(sp)
 19c:	01812423          	sw	s8,8(sp)
 1a0:	02112623          	sw	ra,44(sp)
 1a4:	03212023          	sw	s2,32(sp)
 1a8:	01412c23          	sw	s4,24(sp)
 1ac:	01512a23          	sw	s5,20(sp)
 1b0:	00050493          	mv	s1,a0
 1b4:	00058993          	mv	s3,a1
 1b8:	00050413          	mv	s0,a0
 1bc:	00a00b13          	li	s6,10
 1c0:	00d00b93          	li	s7,13
 1c4:	00800c13          	li	s8,8
 1c8:	fff98a13          	addi	s4,s3,-1
 1cc:	000a0863          	beqz	s4,1dc <gets+0x58>
 1d0:	7bc000ef          	jal	ra,98c <getchar>
 1d4:	00050913          	mv	s2,a0
 1d8:	05651663          	bne	a0,s6,224 <gets+0xa0>
 1dc:	00a00513          	li	a0,10
 1e0:	7c8000ef          	jal	ra,9a8 <putchar>
 1e4:	00040023          	sb	zero,0(s0)
 1e8:	00941463          	bne	s0,s1,1f0 <gets+0x6c>
 1ec:	00000493          	li	s1,0
 1f0:	02c12083          	lw	ra,44(sp)
 1f4:	02812403          	lw	s0,40(sp)
 1f8:	02012903          	lw	s2,32(sp)
 1fc:	01c12983          	lw	s3,28(sp)
 200:	01812a03          	lw	s4,24(sp)
 204:	01412a83          	lw	s5,20(sp)
 208:	01012b03          	lw	s6,16(sp)
 20c:	00c12b83          	lw	s7,12(sp)
 210:	00812c03          	lw	s8,8(sp)
 214:	00048513          	mv	a0,s1
 218:	02412483          	lw	s1,36(sp)
 21c:	03010113          	addi	sp,sp,48
 220:	00008067          	ret
 224:	fb750ce3          	beq	a0,s7,1dc <gets+0x58>
 228:	0ff57a93          	andi	s5,a0,255
 22c:	000a8513          	mv	a0,s5
 230:	778000ef          	jal	ra,9a8 <putchar>
 234:	01891e63          	bne	s2,s8,250 <gets+0xcc>
 238:	00940863          	beq	s0,s1,248 <gets+0xc4>
 23c:	fe040fa3          	sb	zero,-1(s0)
 240:	00098a13          	mv	s4,s3
 244:	fff40413          	addi	s0,s0,-1
 248:	000a0993          	mv	s3,s4
 24c:	f7dff06f          	j	1c8 <gets+0x44>
 250:	01540023          	sb	s5,0(s0)
 254:	00140413          	addi	s0,s0,1
 258:	ff1ff06f          	j	248 <gets+0xc4>

0000025c <putstr>:
 25c:	ff010113          	addi	sp,sp,-16
 260:	00812423          	sw	s0,8(sp)
 264:	00112623          	sw	ra,12(sp)
 268:	00050413          	mv	s0,a0
 26c:	00051663          	bnez	a0,278 <putstr+0x1c>
 270:	80000437          	lui	s0,0x80000
 274:	00040413          	mv	s0,s0
 278:	00044503          	lbu	a0,0(s0) # 80000000 <_sstack+0xffff0000>
 27c:	00051a63          	bnez	a0,290 <putstr+0x34>
 280:	00c12083          	lw	ra,12(sp)
 284:	00812403          	lw	s0,8(sp)
 288:	01010113          	addi	sp,sp,16
 28c:	00008067          	ret
 290:	00140413          	addi	s0,s0,1
 294:	714000ef          	jal	ra,9a8 <putchar>
 298:	fe1ff06f          	j	278 <putstr+0x1c>

0000029c <puts>:
 29c:	ff010113          	addi	sp,sp,-16
 2a0:	00112623          	sw	ra,12(sp)
 2a4:	fb9ff0ef          	jal	ra,25c <putstr>
 2a8:	00c12083          	lw	ra,12(sp)
 2ac:	00a00513          	li	a0,10
 2b0:	01010113          	addi	sp,sp,16
 2b4:	6f40006f          	j	9a8 <putchar>

000002b8 <putdx>:
 2b8:	fa010113          	addi	sp,sp,-96
 2bc:	05412423          	sw	s4,72(sp)
 2c0:	00058a13          	mv	s4,a1
 2c4:	800005b7          	lui	a1,0x80000
 2c8:	04812c23          	sw	s0,88(sp)
 2cc:	04912a23          	sw	s1,84(sp)
 2d0:	01c58413          	addi	s0,a1,28 # 8000001c <_sstack+0xffff001c>
 2d4:	02c00613          	li	a2,44
 2d8:	01c58593          	addi	a1,a1,28
 2dc:	00050493          	mv	s1,a0
 2e0:	01410513          	addi	a0,sp,20
 2e4:	04112e23          	sw	ra,92(sp)
 2e8:	05212823          	sw	s2,80(sp)
 2ec:	05312623          	sw	s3,76(sp)
 2f0:	05512223          	sw	s5,68(sp)
 2f4:	224000ef          	jal	ra,518 <memcpy>
 2f8:	02c40593          	addi	a1,s0,44
 2fc:	01400613          	li	a2,20
 300:	00010513          	mv	a0,sp
 304:	214000ef          	jal	ra,518 <memcpy>
 308:	00010413          	mv	s0,sp
 30c:	000a0463          	beqz	s4,314 <putdx+0x5c>
 310:	01410413          	addi	s0,sp,20
 314:	80000937          	lui	s2,0x80000
 318:	01800993          	li	s3,24
 31c:	00100a93          	li	s5,1
 320:	00890913          	addi	s2,s2,8 # 80000008 <_sstack+0xffff0008>
 324:	00042583          	lw	a1,0(s0)
 328:	02059463          	bnez	a1,350 <putdx+0x98>
 32c:	05c12083          	lw	ra,92(sp)
 330:	05812403          	lw	s0,88(sp)
 334:	05412483          	lw	s1,84(sp)
 338:	05012903          	lw	s2,80(sp)
 33c:	04c12983          	lw	s3,76(sp)
 340:	04812a03          	lw	s4,72(sp)
 344:	04412a83          	lw	s5,68(sp)
 348:	06010113          	addi	sp,sp,96
 34c:	00008067          	ret
 350:	01558463          	beq	a1,s5,358 <putdx+0xa0>
 354:	02b4e263          	bltu	s1,a1,378 <putdx+0xc0>
 358:	020a0663          	beqz	s4,384 <putdx+0xcc>
 35c:	00048513          	mv	a0,s1
 360:	408000ef          	jal	ra,768 <__udivsi3>
 364:	00a00593          	li	a1,10
 368:	408000ef          	jal	ra,770 <__umodsi3>
 36c:	00a90533          	add	a0,s2,a0
 370:	00054503          	lbu	a0,0(a0)
 374:	634000ef          	jal	ra,9a8 <putchar>
 378:	ff898993          	addi	s3,s3,-8
 37c:	00440413          	addi	s0,s0,4
 380:	fa5ff06f          	j	324 <putdx+0x6c>
 384:	00498793          	addi	a5,s3,4
 388:	00f4d7b3          	srl	a5,s1,a5
 38c:	00f7f793          	andi	a5,a5,15
 390:	00f907b3          	add	a5,s2,a5
 394:	0007c503          	lbu	a0,0(a5)
 398:	610000ef          	jal	ra,9a8 <putchar>
 39c:	0134d7b3          	srl	a5,s1,s3
 3a0:	00f7f793          	andi	a5,a5,15
 3a4:	00f907b3          	add	a5,s2,a5
 3a8:	0007c503          	lbu	a0,0(a5)
 3ac:	fc9ff06f          	j	374 <putdx+0xbc>

000003b0 <putx>:
 3b0:	00000593          	li	a1,0
 3b4:	f05ff06f          	j	2b8 <putdx>

000003b8 <putd>:
 3b8:	00100593          	li	a1,1
 3bc:	efdff06f          	j	2b8 <putdx>

000003c0 <printf>:
 3c0:	fb010113          	addi	sp,sp,-80
 3c4:	04f12223          	sw	a5,68(sp)
 3c8:	03410793          	addi	a5,sp,52
 3cc:	02812423          	sw	s0,40(sp)
 3d0:	03212023          	sw	s2,32(sp)
 3d4:	01312e23          	sw	s3,28(sp)
 3d8:	01412c23          	sw	s4,24(sp)
 3dc:	01512a23          	sw	s5,20(sp)
 3e0:	02112623          	sw	ra,44(sp)
 3e4:	02912223          	sw	s1,36(sp)
 3e8:	00050413          	mv	s0,a0
 3ec:	02b12a23          	sw	a1,52(sp)
 3f0:	02c12c23          	sw	a2,56(sp)
 3f4:	02d12e23          	sw	a3,60(sp)
 3f8:	04e12023          	sw	a4,64(sp)
 3fc:	05012423          	sw	a6,72(sp)
 400:	05112623          	sw	a7,76(sp)
 404:	00f12623          	sw	a5,12(sp)
 408:	02500913          	li	s2,37
 40c:	07300993          	li	s3,115
 410:	07800a13          	li	s4,120
 414:	06400a93          	li	s5,100
 418:	00044503          	lbu	a0,0(s0)
 41c:	02051463          	bnez	a0,444 <printf+0x84>
 420:	02c12083          	lw	ra,44(sp)
 424:	02812403          	lw	s0,40(sp)
 428:	02412483          	lw	s1,36(sp)
 42c:	02012903          	lw	s2,32(sp)
 430:	01c12983          	lw	s3,28(sp)
 434:	01812a03          	lw	s4,24(sp)
 438:	01412a83          	lw	s5,20(sp)
 43c:	05010113          	addi	sp,sp,80
 440:	00008067          	ret
 444:	00140493          	addi	s1,s0,1
 448:	07251463          	bne	a0,s2,4b0 <printf+0xf0>
 44c:	00144503          	lbu	a0,1(s0)
 450:	03351063          	bne	a0,s3,470 <printf+0xb0>
 454:	00c12783          	lw	a5,12(sp)
 458:	0007a503          	lw	a0,0(a5)
 45c:	00478713          	addi	a4,a5,4
 460:	00e12623          	sw	a4,12(sp)
 464:	df9ff0ef          	jal	ra,25c <putstr>
 468:	00148413          	addi	s0,s1,1
 46c:	fadff06f          	j	418 <printf+0x58>
 470:	01451e63          	bne	a0,s4,48c <printf+0xcc>
 474:	00c12783          	lw	a5,12(sp)
 478:	0007a503          	lw	a0,0(a5)
 47c:	00478713          	addi	a4,a5,4
 480:	00e12623          	sw	a4,12(sp)
 484:	f2dff0ef          	jal	ra,3b0 <putx>
 488:	fe1ff06f          	j	468 <printf+0xa8>
 48c:	01551e63          	bne	a0,s5,4a8 <printf+0xe8>
 490:	00c12783          	lw	a5,12(sp)
 494:	0007a503          	lw	a0,0(a5)
 498:	00478713          	addi	a4,a5,4
 49c:	00e12623          	sw	a4,12(sp)
 4a0:	f19ff0ef          	jal	ra,3b8 <putd>
 4a4:	fc5ff06f          	j	468 <printf+0xa8>
 4a8:	500000ef          	jal	ra,9a8 <putchar>
 4ac:	fbdff06f          	j	468 <printf+0xa8>
 4b0:	4f8000ef          	jal	ra,9a8 <putchar>
 4b4:	00040493          	mv	s1,s0
 4b8:	fb1ff06f          	j	468 <printf+0xa8>

000004bc <strncmp>:
 4bc:	fff60613          	addi	a2,a2,-1
 4c0:	00000793          	li	a5,0
 4c4:	00f50733          	add	a4,a0,a5
 4c8:	00074683          	lbu	a3,0(a4)
 4cc:	00f58733          	add	a4,a1,a5
 4d0:	00074703          	lbu	a4,0(a4)
 4d4:	00c78a63          	beq	a5,a2,4e8 <strncmp+0x2c>
 4d8:	00068863          	beqz	a3,4e8 <strncmp+0x2c>
 4dc:	00070663          	beqz	a4,4e8 <strncmp+0x2c>
 4e0:	00178793          	addi	a5,a5,1
 4e4:	fee680e3          	beq	a3,a4,4c4 <strncmp+0x8>
 4e8:	40e68533          	sub	a0,a3,a4
 4ec:	00008067          	ret

000004f0 <strcmp>:
 4f0:	fff00613          	li	a2,-1
 4f4:	fc9ff06f          	j	4bc <strncmp>

000004f8 <strlen>:
 4f8:	00050713          	mv	a4,a0
 4fc:	00050793          	mv	a5,a0
 500:	40e78533          	sub	a0,a5,a4
 504:	00078863          	beqz	a5,514 <strlen+0x1c>
 508:	0007c683          	lbu	a3,0(a5)
 50c:	00178793          	addi	a5,a5,1
 510:	fe0698e3          	bnez	a3,500 <strlen+0x8>
 514:	00008067          	ret

00000518 <memcpy>:
 518:	00000793          	li	a5,0
 51c:	00c79463          	bne	a5,a2,524 <memcpy+0xc>
 520:	00008067          	ret
 524:	00f58733          	add	a4,a1,a5
 528:	00074683          	lbu	a3,0(a4)
 52c:	00f50733          	add	a4,a0,a5
 530:	00178793          	addi	a5,a5,1
 534:	00d70023          	sb	a3,0(a4)
 538:	fe5ff06f          	j	51c <memcpy+0x4>

0000053c <memset>:
 53c:	00c50633          	add	a2,a0,a2
 540:	00050793          	mv	a5,a0
 544:	00c79463          	bne	a5,a2,54c <memset+0x10>
 548:	00008067          	ret
 54c:	00178793          	addi	a5,a5,1
 550:	feb78fa3          	sb	a1,-1(a5)
 554:	ff1ff06f          	j	544 <memset+0x8>

00000558 <strtok>:
 558:	fe010113          	addi	sp,sp,-32
 55c:	00812c23          	sw	s0,24(sp)
 560:	00050413          	mv	s0,a0
 564:	00058513          	mv	a0,a1
 568:	01212823          	sw	s2,16(sp)
 56c:	01312623          	sw	s3,12(sp)
 570:	00112e23          	sw	ra,28(sp)
 574:	00912a23          	sw	s1,20(sp)
 578:	00058913          	mv	s2,a1
 57c:	f7dff0ef          	jal	ra,4f8 <strlen>
 580:	00050993          	mv	s3,a0
 584:	00041863          	bnez	s0,594 <strtok+0x3c>
 588:	800017b7          	lui	a5,0x80001
 58c:	cf47a403          	lw	s0,-780(a5) # 80000cf4 <_sstack+0xffff0cf4>
 590:	04040063          	beqz	s0,5d0 <strtok+0x78>
 594:	00040493          	mv	s1,s0
 598:	0004c783          	lbu	a5,0(s1)
 59c:	00079863          	bnez	a5,5ac <strtok+0x54>
 5a0:	800017b7          	lui	a5,0x80001
 5a4:	ce07aa23          	sw	zero,-780(a5) # 80000cf4 <_sstack+0xffff0cf4>
 5a8:	0280006f          	j	5d0 <strtok+0x78>
 5ac:	00098613          	mv	a2,s3
 5b0:	00090593          	mv	a1,s2
 5b4:	00048513          	mv	a0,s1
 5b8:	f05ff0ef          	jal	ra,4bc <strncmp>
 5bc:	00148793          	addi	a5,s1,1
 5c0:	02051863          	bnez	a0,5f0 <strtok+0x98>
 5c4:	80001737          	lui	a4,0x80001
 5c8:	00048023          	sb	zero,0(s1)
 5cc:	cef72a23          	sw	a5,-780(a4) # 80000cf4 <_sstack+0xffff0cf4>
 5d0:	01c12083          	lw	ra,28(sp)
 5d4:	00040513          	mv	a0,s0
 5d8:	01812403          	lw	s0,24(sp)
 5dc:	01412483          	lw	s1,20(sp)
 5e0:	01012903          	lw	s2,16(sp)
 5e4:	00c12983          	lw	s3,12(sp)
 5e8:	02010113          	addi	sp,sp,32
 5ec:	00008067          	ret
 5f0:	00078493          	mv	s1,a5
 5f4:	fa5ff06f          	j	598 <strtok+0x40>

000005f8 <atoi>:
 5f8:	00050713          	mv	a4,a0
 5fc:	00000693          	li	a3,0
 600:	00000513          	li	a0,0
 604:	02d00613          	li	a2,45
 608:	00071a63          	bnez	a4,61c <atoi+0x24>
 60c:	02069c63          	bnez	a3,644 <atoi+0x4c>
 610:	00008067          	ret
 614:	00100693          	li	a3,1
 618:	0240006f          	j	63c <atoi+0x44>
 61c:	00074783          	lbu	a5,0(a4)
 620:	fe0786e3          	beqz	a5,60c <atoi+0x14>
 624:	fec788e3          	beq	a5,a2,614 <atoi+0x1c>
 628:	00351593          	slli	a1,a0,0x3
 62c:	fd078793          	addi	a5,a5,-48
 630:	00b787b3          	add	a5,a5,a1
 634:	00151513          	slli	a0,a0,0x1
 638:	00a78533          	add	a0,a5,a0
 63c:	00170713          	addi	a4,a4,1
 640:	fc9ff06f          	j	608 <atoi+0x10>
 644:	40a00533          	neg	a0,a0
 648:	00008067          	ret

0000064c <xtoi>:
 64c:	00050713          	mv	a4,a0
 650:	03900693          	li	a3,57
 654:	00000513          	li	a0,0
 658:	00070663          	beqz	a4,664 <xtoi+0x18>
 65c:	00074783          	lbu	a5,0(a4)
 660:	00079463          	bnez	a5,668 <xtoi+0x1c>
 664:	00008067          	ret
 668:	00451513          	slli	a0,a0,0x4
 66c:	00f6ea63          	bltu	a3,a5,680 <xtoi+0x34>
 670:	fd078793          	addi	a5,a5,-48
 674:	00a78533          	add	a0,a5,a0
 678:	00170713          	addi	a4,a4,1
 67c:	fddff06f          	j	658 <xtoi+0xc>
 680:	05f7f793          	andi	a5,a5,95
 684:	fc978793          	addi	a5,a5,-55
 688:	fedff06f          	j	674 <xtoi+0x28>

0000068c <__umulsi3>:
 68c:	00050793          	mv	a5,a0
 690:	00b57663          	bgeu	a0,a1,69c <__umulsi3+0x10>
 694:	00058793          	mv	a5,a1
 698:	00050593          	mv	a1,a0
 69c:	00000513          	li	a0,0
 6a0:	00059463          	bnez	a1,6a8 <__umulsi3+0x1c>
 6a4:	00008067          	ret
 6a8:	0015f713          	andi	a4,a1,1
 6ac:	00070463          	beqz	a4,6b4 <__umulsi3+0x28>
 6b0:	00f50533          	add	a0,a0,a5
 6b4:	00179793          	slli	a5,a5,0x1
 6b8:	0015d593          	srli	a1,a1,0x1
 6bc:	fe5ff06f          	j	6a0 <__umulsi3+0x14>

000006c0 <__mulsi3>:
 6c0:	ff010113          	addi	sp,sp,-16
 6c4:	00912223          	sw	s1,4(sp)
 6c8:	00112623          	sw	ra,12(sp)
 6cc:	00812423          	sw	s0,8(sp)
 6d0:	00000493          	li	s1,0
 6d4:	00055663          	bgez	a0,6e0 <__mulsi3+0x20>
 6d8:	40a00533          	neg	a0,a0
 6dc:	00100493          	li	s1,1
 6e0:	00000413          	li	s0,0
 6e4:	0005d663          	bgez	a1,6f0 <__mulsi3+0x30>
 6e8:	40b005b3          	neg	a1,a1
 6ec:	00100413          	li	s0,1
 6f0:	f9dff0ef          	jal	ra,68c <__umulsi3>
 6f4:	00848463          	beq	s1,s0,6fc <__mulsi3+0x3c>
 6f8:	40a00533          	neg	a0,a0
 6fc:	00c12083          	lw	ra,12(sp)
 700:	00812403          	lw	s0,8(sp)
 704:	00412483          	lw	s1,4(sp)
 708:	01010113          	addi	sp,sp,16
 70c:	00008067          	ret

00000710 <__udiv_umod_si3>:
 710:	00050793          	mv	a5,a0
 714:	00100713          	li	a4,1
 718:	00058513          	mv	a0,a1
 71c:	00059863          	bnez	a1,72c <__udiv_umod_si3+0x1c>
 720:	00008067          	ret
 724:	00171713          	slli	a4,a4,0x1
 728:	00151513          	slli	a0,a0,0x1
 72c:	00f57463          	bgeu	a0,a5,734 <__udiv_umod_si3+0x24>
 730:	fe055ae3          	bgez	a0,724 <__udiv_umod_si3+0x14>
 734:	00000693          	li	a3,0
 738:	0180006f          	j	750 <__udiv_umod_si3+0x40>
 73c:	00a7e663          	bltu	a5,a0,748 <__udiv_umod_si3+0x38>
 740:	40a787b3          	sub	a5,a5,a0
 744:	00e686b3          	add	a3,a3,a4
 748:	00175713          	srli	a4,a4,0x1
 74c:	00155513          	srli	a0,a0,0x1
 750:	00078463          	beqz	a5,758 <__udiv_umod_si3+0x48>
 754:	fe0714e3          	bnez	a4,73c <__udiv_umod_si3+0x2c>
 758:	00068513          	mv	a0,a3
 75c:	fc0612e3          	bnez	a2,720 <__udiv_umod_si3+0x10>
 760:	00078513          	mv	a0,a5
 764:	fbdff06f          	j	720 <__udiv_umod_si3+0x10>

00000768 <__udivsi3>:
 768:	00100613          	li	a2,1
 76c:	fa5ff06f          	j	710 <__udiv_umod_si3>

00000770 <__umodsi3>:
 770:	00000613          	li	a2,0
 774:	f9dff06f          	j	710 <__udiv_umod_si3>

00000778 <__div_mod_si3>:
 778:	06058e63          	beqz	a1,7f4 <__div_mod_si3+0x7c>
 77c:	ff010113          	addi	sp,sp,-16
 780:	00812423          	sw	s0,8(sp)
 784:	00912223          	sw	s1,4(sp)
 788:	00112623          	sw	ra,12(sp)
 78c:	01212023          	sw	s2,0(sp)
 790:	00060413          	mv	s0,a2
 794:	00000493          	li	s1,0
 798:	00055663          	bgez	a0,7a4 <__div_mod_si3+0x2c>
 79c:	40a00533          	neg	a0,a0
 7a0:	00100493          	li	s1,1
 7a4:	00000913          	li	s2,0
 7a8:	0005d663          	bgez	a1,7b4 <__div_mod_si3+0x3c>
 7ac:	40b005b3          	neg	a1,a1
 7b0:	00100913          	li	s2,1
 7b4:	00040613          	mv	a2,s0
 7b8:	f59ff0ef          	jal	ra,710 <__udiv_umod_si3>
 7bc:	00050593          	mv	a1,a0
 7c0:	02040463          	beqz	s0,7e8 <__div_mod_si3+0x70>
 7c4:	01248463          	beq	s1,s2,7cc <__div_mod_si3+0x54>
 7c8:	40a005b3          	neg	a1,a0
 7cc:	00c12083          	lw	ra,12(sp)
 7d0:	00812403          	lw	s0,8(sp)
 7d4:	00412483          	lw	s1,4(sp)
 7d8:	00012903          	lw	s2,0(sp)
 7dc:	00058513          	mv	a0,a1
 7e0:	01010113          	addi	sp,sp,16
 7e4:	00008067          	ret
 7e8:	fe0482e3          	beqz	s1,7cc <__div_mod_si3+0x54>
 7ec:	40a005b3          	neg	a1,a0
 7f0:	fddff06f          	j	7cc <__div_mod_si3+0x54>
 7f4:	00058513          	mv	a0,a1
 7f8:	00008067          	ret

000007fc <__divsi3>:
 7fc:	00100613          	li	a2,1
 800:	f79ff06f          	j	778 <__div_mod_si3>

00000804 <__modsi3>:
 804:	00000613          	li	a2,0
 808:	f71ff06f          	j	778 <__div_mod_si3>

0000080c <header>:
 80c:	80000537          	lui	a0,0x80000
 810:	fe010113          	addi	sp,sp,-32
 814:	05c50513          	addi	a0,a0,92 # 8000005c <_sstack+0xffff005c>
 818:	00112e23          	sw	ra,28(sp)
 81c:	00812c23          	sw	s0,24(sp)
 820:	00912a23          	sw	s1,20(sp)
 824:	01212823          	sw	s2,16(sp)
 828:	01312623          	sw	s3,12(sp)
 82c:	b95ff0ef          	jal	ra,3c0 <printf>
 830:	000017b7          	lui	a5,0x1
 834:	0087a503          	lw	a0,8(a5) # 1008 <main+0x614>
 838:	000f45b7          	lui	a1,0xf4
 83c:	24058593          	addi	a1,a1,576 # f4240 <__stack_size+0xec240>
 840:	0287a403          	lw	s0,40(a5)
 844:	02c7a983          	lw	s3,44(a5)
 848:	0307a903          	lw	s2,48(a5)
 84c:	0347a483          	lw	s1,52(a5)
 850:	f19ff0ef          	jal	ra,768 <__udivsi3>
 854:	00050593          	mv	a1,a0
 858:	80000537          	lui	a0,0x80000
 85c:	07c50513          	addi	a0,a0,124 # 8000007c <_sstack+0xffff007c>
 860:	b61ff0ef          	jal	ra,3c0 <printf>
 864:	80000537          	lui	a0,0x80000
 868:	00098593          	mv	a1,s3
 86c:	08c50513          	addi	a0,a0,140 # 8000008c <_sstack+0xffff008c>
 870:	b51ff0ef          	jal	ra,3c0 <printf>
 874:	80000537          	lui	a0,0x80000
 878:	00090593          	mv	a1,s2
 87c:	09c50513          	addi	a0,a0,156 # 8000009c <_sstack+0xffff009c>
 880:	b41ff0ef          	jal	ra,3c0 <printf>
 884:	80000537          	lui	a0,0x80000
 888:	00048593          	mv	a1,s1
 88c:	0ac50513          	addi	a0,a0,172 # 800000ac <_sstack+0xffff00ac>
 890:	b31ff0ef          	jal	ra,3c0 <printf>
 894:	0001c5b7          	lui	a1,0x1c
 898:	80000537          	lui	a0,0x80000
 89c:	20058593          	addi	a1,a1,512 # 1c200 <__stack_size+0x14200>
 8a0:	0bc50513          	addi	a0,a0,188 # 800000bc <_sstack+0xffff00bc>
 8a4:	b1dff0ef          	jal	ra,3c0 <printf>
 8a8:	80000537          	lui	a0,0x80000
 8ac:	00040593          	mv	a1,s0
 8b0:	0c850513          	addi	a0,a0,200 # 800000c8 <_sstack+0xffff00c8>
 8b4:	b0dff0ef          	jal	ra,3c0 <printf>
 8b8:	01812403          	lw	s0,24(sp)
 8bc:	01c12083          	lw	ra,28(sp)
 8c0:	01412483          	lw	s1,20(sp)
 8c4:	01012903          	lw	s2,16(sp)
 8c8:	00c12983          	lw	s3,12(sp)
 8cc:	80000537          	lui	a0,0x80000
 8d0:	0d850513          	addi	a0,a0,216 # 800000d8 <_sstack+0xffff00d8>
 8d4:	02010113          	addi	sp,sp,32
 8d8:	ae9ff06f          	j	3c0 <printf>

000008dc <uart_reg_read>:
 8dc:	300007b7          	lui	a5,0x30000
 8e0:	00f50533          	add	a0,a0,a5
 8e4:	00052503          	lw	a0,0(a0)
 8e8:	00008067          	ret

000008ec <uart_reg_write>:
 8ec:	300007b7          	lui	a5,0x30000
 8f0:	00f50533          	add	a0,a0,a5
 8f4:	00b52023          	sw	a1,0(a0)
 8f8:	00008067          	ret

000008fc <uart_rx_empty>:
 8fc:	300007b7          	lui	a5,0x30000
 900:	00c7a503          	lw	a0,12(a5) # 3000000c <__stack_size+0x2fff800c>
 904:	00157513          	andi	a0,a0,1
 908:	00008067          	ret

0000090c <uart_tx_full>:
 90c:	300007b7          	lui	a5,0x30000
 910:	00c7a503          	lw	a0,12(a5) # 3000000c <__stack_size+0x2fff800c>
 914:	00355513          	srli	a0,a0,0x3
 918:	00157513          	andi	a0,a0,1
 91c:	00008067          	ret

00000920 <uart_read>:
 920:	300007b7          	lui	a5,0x30000
 924:	0047a503          	lw	a0,4(a5) # 30000004 <__stack_size+0x2fff8004>
 928:	0ff57513          	andi	a0,a0,255
 92c:	00008067          	ret

00000930 <uart_write>:
 930:	300007b7          	lui	a5,0x30000
 934:	00a7a023          	sw	a0,0(a5) # 30000000 <__stack_size+0x2fff8000>
 938:	00008067          	ret

0000093c <uart_divisor>:
 93c:	ff010113          	addi	sp,sp,-16
 940:	00459593          	slli	a1,a1,0x4
 944:	00112623          	sw	ra,12(sp)
 948:	e21ff0ef          	jal	ra,768 <__udivsi3>
 94c:	00c12083          	lw	ra,12(sp)
 950:	fff50513          	addi	a0,a0,-1
 954:	01010113          	addi	sp,sp,16
 958:	00008067          	ret

0000095c <uart_init>:
 95c:	000017b7          	lui	a5,0x1
 960:	0087a503          	lw	a0,8(a5) # 1008 <main+0x614>
 964:	ff010113          	addi	sp,sp,-16
 968:	001c25b7          	lui	a1,0x1c2
 96c:	00112623          	sw	ra,12(sp)
 970:	df9ff0ef          	jal	ra,768 <__udivsi3>
 974:	00c12083          	lw	ra,12(sp)
 978:	fff50513          	addi	a0,a0,-1
 97c:	300007b7          	lui	a5,0x30000
 980:	00a7a823          	sw	a0,16(a5) # 30000010 <__stack_size+0x2fff8010>
 984:	01010113          	addi	sp,sp,16
 988:	00008067          	ret

0000098c <getchar>:
 98c:	30000737          	lui	a4,0x30000
 990:	00c72783          	lw	a5,12(a4) # 3000000c <__stack_size+0x2fff800c>
 994:	0017f793          	andi	a5,a5,1
 998:	fe079ce3          	bnez	a5,990 <getchar+0x4>
 99c:	00472503          	lw	a0,4(a4)
 9a0:	0ff57513          	andi	a0,a0,255
 9a4:	00008067          	ret

000009a8 <putchar>:
 9a8:	ff010113          	addi	sp,sp,-16
 9ac:	00812423          	sw	s0,8(sp)
 9b0:	00112623          	sw	ra,12(sp)
 9b4:	00a00793          	li	a5,10
 9b8:	00050413          	mv	s0,a0
 9bc:	00f51c63          	bne	a0,a5,9d4 <putchar+0x2c>
 9c0:	f4dff0ef          	jal	ra,90c <uart_tx_full>
 9c4:	fe051ee3          	bnez	a0,9c0 <putchar+0x18>
 9c8:	300007b7          	lui	a5,0x30000
 9cc:	00d00713          	li	a4,13
 9d0:	00e7a023          	sw	a4,0(a5) # 30000000 <__stack_size+0x2fff8000>
 9d4:	f39ff0ef          	jal	ra,90c <uart_tx_full>
 9d8:	fe051ee3          	bnez	a0,9d4 <putchar+0x2c>
 9dc:	300007b7          	lui	a5,0x30000
 9e0:	00c12083          	lw	ra,12(sp)
 9e4:	0087a023          	sw	s0,0(a5) # 30000000 <__stack_size+0x2fff8000>
 9e8:	00812403          	lw	s0,8(sp)
 9ec:	01010113          	addi	sp,sp,16
 9f0:	00008067          	ret

Disassembly of section .text.startup:

000009f4 <main>:
 9f4:	fe010113          	addi	sp,sp,-32
 9f8:	00112e23          	sw	ra,28(sp)
 9fc:	00812c23          	sw	s0,24(sp)
 a00:	00912a23          	sw	s1,20(sp)
 a04:	01212823          	sw	s2,16(sp)
 a08:	01312623          	sw	s3,12(sp)
 a0c:	01412423          	sw	s4,8(sp)
 a10:	f4dff0ef          	jal	ra,95c <uart_init>
 a14:	00100593          	li	a1,1
 a18:	00000513          	li	a0,0
 a1c:	e78ff0ef          	jal	ra,94 <pinMode>
 a20:	00100593          	li	a1,1
 a24:	00000513          	li	a0,0
 a28:	eb8ff0ef          	jal	ra,e0 <digitalWrite>
 a2c:	de1ff0ef          	jal	ra,80c <header>
 a30:	800017b7          	lui	a5,0x80001
 a34:	cec7a503          	lw	a0,-788(a5) # 80000cec <_sstack+0xffff0cec>
 a38:	deadc437          	lui	s0,0xdeadc
 a3c:	00d00913          	li	s2,13
 a40:	981ff0ef          	jal	ra,3c0 <printf>
 a44:	80000537          	lui	a0,0x80000
 a48:	0e050513          	addi	a0,a0,224 # 800000e0 <_sstack+0xffff00e0>
 a4c:	975ff0ef          	jal	ra,3c0 <printf>
 a50:	80000a37          	lui	s4,0x80000
 a54:	800019b7          	lui	s3,0x80001
 a58:	eef40413          	addi	s0,s0,-273 # deadbeef <_sstack+0x5eacbeef>
 a5c:	800004b7          	lui	s1,0x80000
 a60:	f2dff0ef          	jal	ra,98c <getchar>
 a64:	0ff57513          	andi	a0,a0,255
 a68:	03251063          	bne	a0,s2,a88 <main+0x94>
 a6c:	0e4a0513          	addi	a0,s4,228 # 800000e4 <_sstack+0xffff00e4>
 a70:	951ff0ef          	jal	ra,3c0 <printf>
 a74:	ce89a783          	lw	a5,-792(s3) # 80000ce8 <_sstack+0xffff0ce8>
 a78:	fe8784e3          	beq	a5,s0,a60 <main+0x6c>
 a7c:	0ec48513          	addi	a0,s1,236 # 800000ec <_sstack+0xffff00ec>
 a80:	941ff0ef          	jal	ra,3c0 <printf>
 a84:	fddff06f          	j	a60 <main+0x6c>
 a88:	f21ff0ef          	jal	ra,9a8 <putchar>
 a8c:	fe9ff06f          	j	a74 <main+0x80>
